; Function Attrs: nounwind uwtable
define dso_local void @ExecEvalGroupingFunc(ptr noundef readonly captures(none) %0, ptr noundef readonly captures(none) %1) local_unnamed_addr #0 {
  %3 = getelementptr inbounds nuw i8, ptr %0, i64 64
  %4 = load ptr, ptr %3, align 8
  %5 = getelementptr inbounds nuw i8, ptr %4, i64 344
  %6 = load ptr, ptr %5, align 8
  %7 = getelementptr inbounds nuw i8, ptr %1, i64 24
  %8 = load ptr, ptr %7, align 8
  %9 = getelementptr inbounds nuw i8, ptr %8, i64 4
  %.not = icmp eq ptr %8, null
  br i1 %.not, label %._crit_edge, label %.lr.ph

.lr.ph:                                           ; preds = %2
  %10 = getelementptr inbounds nuw i8, ptr %8, i64 16
  %11 = load i32, ptr %9, align 4
  %12 = icmp sgt i32 %11, 0
  br i1 %12, label %.lr.ph26, label %._crit_edge

._crit_edge.loopexit:                             ; preds = %.lr.ph26
  %13 = sext i32 %spec.select to i64
  br label %._crit_edge

._crit_edge:                                      ; preds = %._crit_edge.loopexit, %.lr.ph, %2
  %.0.lcssa = phi i64 [ 0, %2 ], [ 0, %.lr.ph ], [ %13, %._crit_edge.loopexit ]
  %14 = getelementptr inbounds nuw i8, ptr %1, i64 8
  %15 = load ptr, ptr %14, align 8
  store i64 %.0.lcssa, ptr %15, align 8
  %16 = getelementptr inbounds nuw i8, ptr %1, i64 16
  %17 = load ptr, ptr %16, align 8
  store i8 0, ptr %17, align 1
  ret void

.lr.ph26:                                         ; preds = %.lr.ph, %.lr.ph26
  %indvars.iv = phi i64 [ %indvars.iv.next, %.lr.ph26 ], [ 0, %.lr.ph ]
  %.02024 = phi i32 [ %spec.select, %.lr.ph26 ], [ 0, %.lr.ph ]
  %18 = load ptr, ptr %10, align 8
  %19 = getelementptr inbounds nuw %union.ListCell, ptr %18, i64 %indvars.iv
  %20 = load i32, ptr %19, align 8
  %21 = shl i32 %.02024, 1
  %22 = tail call zeroext i1 @bms_is_member(i32 noundef %20, ptr noundef %6) #18
  %not. = xor i1 %22, true
  %23 = zext i1 %not. to i32
  %spec.select = or disjoint i32 %21, %23
  %indvars.iv.next = add nuw nsw i64 %indvars.iv, 1
  %24 = load i32, ptr %9, align 4
  %25 = sext i32 %24 to i64
  %26 = icmp slt i64 %indvars.iv.next, %25
  br i1 %26, label %.lr.ph26, label %._crit_edge.loopexit
}